; Function Attrs: mustprogress uwtable
define internal fastcc void @_ZN5boost6locale8impl_icuL18check_and_throw_dtER10UErrorCode(ptr nocapture noundef nonnull readonly align 4 dereferenceable(4) %0) unnamed_addr #4 personality ptr @__gxx_personality_v0 {
  %2 = alloca %"class.std::__cxx11::basic_string", align 8
  %3 = alloca %"class.std::allocator", align 1
  %4 = load i32, ptr %0, align 4, !tbaa !58
  %5 = icmp slt i32 %4, 1
  br i1 %5, label %27, label %6

6:                                                ; preds = %1
  %7 = tail call ptr @__cxa_allocate_exception(i64 16) #29
  call void @llvm.lifetime.start.p0(i64 32, ptr nonnull %2) #29
  %8 = load i32, ptr %0, align 4, !tbaa !58
  %9 = invoke ptr @u_errorName_70(i32 noundef %8)
          to label %10 unwind label %.thread

10:                                               ; preds = %6
  call void @llvm.lifetime.start.p0(i64 1, ptr nonnull %3) #29
  invoke void @_ZNSt7__cxx1112basic_stringIcSt11char_traitsIcESaIcEEC2IS3_EEPKcRKS3_(ptr noundef nonnull align 8 dereferenceable(32) %2, ptr noundef %9, ptr noundef nonnull align 1 dereferenceable(1) %3)
          to label %11 unwind label %.thread14

11:                                               ; preds = %10
  invoke void @_ZNSt13runtime_errorC2ERKNSt7__cxx1112basic_stringIcSt11char_traitsIcESaIcEEE(ptr noundef nonnull align 8 dereferenceable(16) %7, ptr noundef nonnull align 8 dereferenceable(32) %2)
          to label %12 unwind label %15

12:                                               ; preds = %11
  store ptr getelementptr inbounds inrange(-16, 24) (i8, ptr @_ZTVN5boost6locale15date_time_errorE, i64 16), ptr %7, align 8, !tbaa !20
  invoke void @__cxa_throw(ptr nonnull %7, ptr nonnull @_ZTIN5boost6locale15date_time_errorE, ptr nonnull @_ZNSt13runtime_errorD2Ev) #30
          to label %29 unwind label %15

.thread:                                          ; preds = %6
  %13 = landingpad { ptr, i32 }
          cleanup
  br label %.sink.split

.thread14:                                        ; preds = %10
  %14 = landingpad { ptr, i32 }
          cleanup
  call void @llvm.lifetime.end.p0(i64 1, ptr nonnull %3) #29
  br label %.sink.split

15:                                               ; preds = %11, %12
  %.0 = phi i1 [ false, %12 ], [ true, %11 ]
  %16 = landingpad { ptr, i32 }
          cleanup
  %17 = load ptr, ptr %2, align 8, !tbaa !13
  %18 = getelementptr inbounds nuw i8, ptr %2, i64 16
  %19 = icmp eq ptr %17, %18
  br i1 %19, label %_ZNKSt7__cxx1112basic_stringIcSt11char_traitsIcESaIcEE11_M_is_localEv.exit.thread.i.i, label %23

_ZNKSt7__cxx1112basic_stringIcSt11char_traitsIcESaIcEE11_M_is_localEv.exit.thread.i.i: ; preds = %15
  %20 = getelementptr inbounds nuw i8, ptr %2, i64 8
  %21 = load i64, ptr %20, align 8, !tbaa !16
  %22 = icmp ult i64 %21, 16
  call void @llvm.assume(i1 %22)
  call void @llvm.lifetime.end.p0(i64 1, ptr nonnull %3) #29
  call void @llvm.lifetime.end.p0(i64 32, ptr nonnull %2) #29
  br i1 %.0, label %26, label %28

23:                                               ; preds = %15
  %24 = load i64, ptr %18, align 8, !tbaa !15
  %25 = add i64 %24, 1
  call void @_ZdlPvm(ptr noundef %17, i64 noundef %25) #33
  call void @llvm.lifetime.end.p0(i64 1, ptr nonnull %3) #29
  call void @llvm.lifetime.end.p0(i64 32, ptr nonnull %2) #29
  br i1 %.0, label %26, label %28

.sink.split:                                      ; preds = %.thread, %.thread14
  %.pn.pn13.ph = phi { ptr, i32 } [ %14, %.thread14 ], [ %13, %.thread ]
  call void @llvm.lifetime.end.p0(i64 32, ptr nonnull %2) #29
  br label %26

26:                                               ; preds = %.sink.split, %_ZNKSt7__cxx1112basic_stringIcSt11char_traitsIcESaIcEE11_M_is_localEv.exit.thread.i.i, %23
  %.pn.pn13 = phi { ptr, i32 } [ %16, %23 ], [ %16, %_ZNKSt7__cxx1112basic_stringIcSt11char_traitsIcESaIcEE11_M_is_localEv.exit.thread.i.i ], [ %.pn.pn13.ph, %.sink.split ]
  call void @__cxa_free_exception(ptr %7) #29
  br label %28

27:                                               ; preds = %1
  ret void

28:                                               ; preds = %_ZNKSt7__cxx1112basic_stringIcSt11char_traitsIcESaIcEE11_M_is_localEv.exit.thread.i.i, %23, %26
  %.pn.pn12 = phi { ptr, i32 } [ %16, %23 ], [ %.pn.pn13, %26 ], [ %16, %_ZNKSt7__cxx1112basic_stringIcSt11char_traitsIcESaIcEE11_M_is_localEv.exit.thread.i.i ]
  resume { ptr, i32 } %.pn.pn12

29:                                               ; preds = %12
  unreachable
}